; Function Attrs: nofree norecurse nosync nounwind memory(read, inaccessiblemem: none) uwtable
define range(i32 -173, 65536) i32 @TLSX_SupportedCurve_Preferred(ptr noundef readonly captures(none) %0, i32 noundef %1) local_unnamed_addr #8 {
  %3 = getelementptr inbounds nuw i8, ptr %0, i64 1224
  %4 = load ptr, ptr %3, align 8, !tbaa !100
  %.not6.i = icmp eq ptr %4, null
  br i1 %.not6.i, label %TLSX_Find.exit.thread, label %.lr.ph.i

.lr.ph.i:                                         ; preds = %2, %6
  %.07.i = phi ptr [ %8, %6 ], [ %4, %2 ]
  %5 = load i32, ptr %.07.i, align 8, !tbaa !60
  %.not5.i = icmp eq i32 %5, 10
  br i1 %.not5.i, label %TLSX_Find.exit.preheader, label %6

TLSX_Find.exit.preheader:                         ; preds = %.lr.ph.i
  %.not10 = icmp eq i32 %1, 0
  br i1 %.not10, label %TLSX_Find.exit.us, label %TLSX_Find.exit

TLSX_Find.exit.us:                                ; preds = %TLSX_Find.exit.preheader
  %.0.in.us = getelementptr inbounds nuw i8, ptr %.07.i, i64 8
  %.0.us = load ptr, ptr %.0.in.us, align 8, !tbaa !108
  %.not.us = icmp eq ptr %.0.us, null
  br i1 %.not.us, label %TLSX_Find.exit.thread, label %TLSX_Find.exit.us.TLSX_KeyShare_IsSupported.exit.thread_crit_edge

TLSX_Find.exit.us.TLSX_KeyShare_IsSupported.exit.thread_crit_edge: ; preds = %TLSX_Find.exit.us
  %.pre = load i16, ptr %.0.us, align 8, !tbaa !110
  br label %TLSX_KeyShare_IsSupported.exit.thread

6:                                                ; preds = %.lr.ph.i
  %7 = getelementptr inbounds nuw i8, ptr %.07.i, i64 24
  %8 = load ptr, ptr %7, align 8, !tbaa !63
  %.not.i = icmp eq ptr %8, null
  br i1 %.not.i, label %TLSX_Find.exit.thread, label %.lr.ph.i, !llvm.loop !101

TLSX_Find.exit:                                   ; preds = %TLSX_Find.exit.preheader, %9
  %.pn = phi ptr [ %.0, %9 ], [ %.07.i, %TLSX_Find.exit.preheader ]
  %.0.in = getelementptr inbounds nuw i8, ptr %.pn, i64 8
  %.0 = load ptr, ptr %.0.in, align 8, !tbaa !108
  %.not = icmp eq ptr %.0, null
  br i1 %.not, label %TLSX_Find.exit.thread, label %9

9:                                                ; preds = %TLSX_Find.exit
  %10 = load i16, ptr %.0, align 8, !tbaa !110
  switch i16 %10, label %TLSX_Find.exit [
    i16 256, label %TLSX_KeyShare_IsSupported.exit.thread
    i16 23, label %TLSX_KeyShare_IsSupported.exit.thread
    i16 24, label %TLSX_KeyShare_IsSupported.exit.thread
    i16 25, label %TLSX_KeyShare_IsSupported.exit.thread
    i16 21, label %TLSX_KeyShare_IsSupported.exit.thread
  ], !llvm.loop !133

TLSX_KeyShare_IsSupported.exit.thread:            ; preds = %9, %9, %9, %9, %9, %TLSX_Find.exit.us.TLSX_KeyShare_IsSupported.exit.thread_crit_edge
  %11 = phi i16 [ %.pre, %TLSX_Find.exit.us.TLSX_KeyShare_IsSupported.exit.thread_crit_edge ], [ %10, %9 ], [ %10, %9 ], [ %10, %9 ], [ %10, %9 ], [ %10, %9 ]
  %12 = zext i16 %11 to i32
  br label %TLSX_Find.exit.thread

TLSX_Find.exit.thread:                            ; preds = %6, %TLSX_Find.exit, %TLSX_Find.exit.us, %2, %TLSX_KeyShare_IsSupported.exit.thread
  %.08 = phi i32 [ %12, %TLSX_KeyShare_IsSupported.exit.thread ], [ -173, %2 ], [ -173, %TLSX_Find.exit.us ], [ -173, %TLSX_Find.exit ], [ -173, %6 ]
  ret i32 %.08
}